target datalayout = "e-m:e-p270:32:32-p271:32:32-p272:64:64-i64:64-i128:128-f80:128-n8:16:32:64-S128"
target triple = "x86_64-pc-linux-gnu"

%struct.CipherSuiteInfo = type { ptr, ptr, i8, i8, i8 }

@.str.180 = private unnamed_addr constant [2 x i8] c":\00", align 1

; Function Attrs: nounwind uwtable
define i32 @GetCipherNamesSize() #0 {
  ret i32 27
}

; Function Attrs: nounwind uwtable
define i32 @GetCipherSuiteFromName(ptr noundef %0, ptr noundef %1, ptr noundef %2, ptr noundef %3, ptr noundef %4, ptr noundef %5) #0 {
  %7 = alloca ptr, align 8
  %8 = alloca ptr, align 8
  %9 = alloca ptr, align 8
  %10 = alloca ptr, align 8
  %11 = alloca ptr, align 8
  %12 = alloca ptr, align 8
  %13 = alloca i32, align 4
  %14 = alloca i32, align 4
  %15 = alloca i64, align 8
  %16 = alloca ptr, align 8
  %17 = alloca i32, align 4
  %18 = alloca i32, align 4
  store ptr %0, ptr %7, align 8, !tbaa !89
  store ptr %1, ptr %8, align 8, !tbaa !89
  store ptr %2, ptr %9, align 8, !tbaa !89
  store ptr %3, ptr %10, align 8, !tbaa !89
  store ptr %4, ptr %11, align 8, !tbaa !89
  store ptr %5, ptr %12, align 8, !tbaa !143
  call void @llvm.lifetime.start.p0(i64 4, ptr %13) #9
  store i32 -173, ptr %13, align 4, !tbaa !47
  call void @llvm.lifetime.start.p0(i64 4, ptr %14) #9
  call void @llvm.lifetime.start.p0(i64 8, ptr %15) #9
  call void @llvm.lifetime.start.p0(i64 8, ptr %16) #9
  %19 = load ptr, ptr %7, align 8, !tbaa !89
  %20 = call ptr @strstr(ptr noundef %19, ptr noundef @.str.180) #10
  store ptr %20, ptr %16, align 8, !tbaa !89
  %21 = load ptr, ptr %16, align 8, !tbaa !89
  %22 = icmp ne ptr %21, null
  br i1 %22, label %23, label %29

23:                                               ; preds = %6
  %24 = load ptr, ptr %16, align 8, !tbaa !89
  %25 = load ptr, ptr %7, align 8, !tbaa !89
  %26 = ptrtoint ptr %24 to i64
  %27 = ptrtoint ptr %25 to i64
  %28 = sub i64 %26, %27
  store i64 %28, ptr %15, align 8, !tbaa !94
  br label %32

29:                                               ; preds = %6
  %30 = load ptr, ptr %7, align 8, !tbaa !89
  %31 = call i64 @strlen(ptr noundef %30) #10
  store i64 %31, ptr %15, align 8, !tbaa !94
  br label %32

32:                                               ; preds = %29, %23
  store i32 0, ptr %14, align 4, !tbaa !47
  br label %33

33:                                               ; preds = %126, %32
  %34 = load i32, ptr %14, align 4, !tbaa !47
  %35 = call i32 @GetCipherNamesSize()
  %36 = icmp slt i32 %34, %35
  br i1 %36, label %37, label %129

37:                                               ; preds = %33
  call void @llvm.lifetime.start.p0(i64 4, ptr %17) #9
  %38 = load ptr, ptr %7, align 8, !tbaa !89
  %39 = load i32, ptr %14, align 4, !tbaa !47
  %40 = sext i32 %39 to i64
  %41 = getelementptr inbounds [27 x %struct.CipherSuiteInfo], ptr @cipher_names, i64 0, i64 %40
  %42 = getelementptr inbounds nuw %struct.CipherSuiteInfo, ptr %41, i32 0, i32 0
  %43 = load ptr, ptr %42, align 8, !tbaa !458
  %44 = load i64, ptr %15, align 8, !tbaa !94
  %45 = call i32 @strncmp(ptr noundef %38, ptr noundef %43, i64 noundef %44) #10
  %46 = icmp eq i32 %45, 0
  br i1 %46, label %47, label %58

47:                                               ; preds = %37
  %48 = load i32, ptr %14, align 4, !tbaa !47
  %49 = sext i32 %48 to i64
  %50 = getelementptr inbounds [27 x %struct.CipherSuiteInfo], ptr @cipher_names, i64 0, i64 %49
  %51 = getelementptr inbounds nuw %struct.CipherSuiteInfo, ptr %50, i32 0, i32 0
  %52 = load ptr, ptr %51, align 8, !tbaa !458
  %53 = load i64, ptr %15, align 8, !tbaa !94
  %54 = getelementptr inbounds nuw i8, ptr %52, i64 %53
  %55 = load i8, ptr %54, align 1, !tbaa !54
  %56 = sext i8 %55 to i32
  %57 = icmp eq i32 %56, 0
  br label %58

58:                                               ; preds = %47, %37
  %59 = phi i1 [ false, %37 ], [ %57, %47 ]
  %60 = zext i1 %59 to i32
  store i32 %60, ptr %17, align 4, !tbaa !47
  %61 = load i32, ptr %17, align 4, !tbaa !47
  %62 = icmp ne i32 %61, 0
  br i1 %62, label %87, label %63

63:                                               ; preds = %58
  %64 = load ptr, ptr %7, align 8, !tbaa !89
  %65 = load i32, ptr %14, align 4, !tbaa !47
  %66 = sext i32 %65 to i64
  %67 = getelementptr inbounds [27 x %struct.CipherSuiteInfo], ptr @cipher_names, i64 0, i64 %66
  %68 = getelementptr inbounds nuw %struct.CipherSuiteInfo, ptr %67, i32 0, i32 1
  %69 = load ptr, ptr %68, align 8, !tbaa !460
  %70 = load i64, ptr %15, align 8, !tbaa !94
  %71 = call i32 @strncmp(ptr noundef %64, ptr noundef %69, i64 noundef %70) #10
  %72 = icmp eq i32 %71, 0
  br i1 %72, label %73, label %84

73:                                               ; preds = %63
  %74 = load i32, ptr %14, align 4, !tbaa !47
  %75 = sext i32 %74 to i64
  %76 = getelementptr inbounds [27 x %struct.CipherSuiteInfo], ptr @cipher_names, i64 0, i64 %75
  %77 = getelementptr inbounds nuw %struct.CipherSuiteInfo, ptr %76, i32 0, i32 1
  %78 = load ptr, ptr %77, align 8, !tbaa !460
  %79 = load i64, ptr %15, align 8, !tbaa !94
  %80 = getelementptr inbounds nuw i8, ptr %78, i64 %79
  %81 = load i8, ptr %80, align 1, !tbaa !54
  %82 = sext i8 %81 to i32
  %83 = icmp eq i32 %82, 0
  br label %84

84:                                               ; preds = %73, %63
  %85 = phi i1 [ false, %63 ], [ %83, %73 ]
  %86 = zext i1 %85 to i32
  store i32 %86, ptr %17, align 4, !tbaa !47
  br label %87

87:                                               ; preds = %84, %58
  %88 = load i32, ptr %17, align 4, !tbaa !47
  %89 = icmp ne i32 %88, 0
  br i1 %89, label %90, label %122

90:                                               ; preds = %87
  %91 = load ptr, ptr %8, align 8, !tbaa !89
  %92 = icmp ne ptr %91, null
  br i1 %92, label %93, label %100

93:                                               ; preds = %90
  %94 = load i32, ptr %14, align 4, !tbaa !47
  %95 = sext i32 %94 to i64
  %96 = getelementptr inbounds [27 x %struct.CipherSuiteInfo], ptr @cipher_names, i64 0, i64 %95
  %97 = getelementptr inbounds nuw %struct.CipherSuiteInfo, ptr %96, i32 0, i32 2
  %98 = load i8, ptr %97, align 8, !tbaa !454
  %99 = load ptr, ptr %8, align 8, !tbaa !89
  store i8 %98, ptr %99, align 1, !tbaa !54
  br label %100

100:                                              ; preds = %93, %90
  %101 = load ptr, ptr %9, align 8, !tbaa !89
  %102 = icmp ne ptr %101, null
  br i1 %102, label %103, label %110

103:                                              ; preds = %100
  %104 = load i32, ptr %14, align 4, !tbaa !47
  %105 = sext i32 %104 to i64
  %106 = getelementptr inbounds [27 x %struct.CipherSuiteInfo], ptr @cipher_names, i64 0, i64 %105
  %107 = getelementptr inbounds nuw %struct.CipherSuiteInfo, ptr %106, i32 0, i32 3
  %108 = load i8, ptr %107, align 1, !tbaa !456
  %109 = load ptr, ptr %9, align 8, !tbaa !89
  store i8 %108, ptr %109, align 1, !tbaa !54
  br label %110

110:                                              ; preds = %103, %100
  %111 = load ptr, ptr %12, align 8, !tbaa !143
  %112 = icmp ne ptr %111, null
  br i1 %112, label %113, label %121

113:                                              ; preds = %110
  %114 = load i32, ptr %14, align 4, !tbaa !47
  %115 = sext i32 %114 to i64
  %116 = getelementptr inbounds [27 x %struct.CipherSuiteInfo], ptr @cipher_names, i64 0, i64 %115
  %117 = getelementptr inbounds nuw %struct.CipherSuiteInfo, ptr %116, i32 0, i32 4
  %118 = load i8, ptr %117, align 2, !tbaa !457
  %119 = zext i8 %118 to i32
  %120 = load ptr, ptr %12, align 8, !tbaa !143
  store i32 %119, ptr %120, align 4, !tbaa !47
  br label %121

121:                                              ; preds = %113, %110
  store i32 0, ptr %13, align 4, !tbaa !47
  store i32 2, ptr %18, align 4
  br label %123

122:                                              ; preds = %87
  store i32 0, ptr %18, align 4
  br label %123

123:                                              ; preds = %122, %121
  call void @llvm.lifetime.end.p0(i64 4, ptr %17) #9
  %124 = load i32, ptr %18, align 4
  switch i32 %124, label %131 [
    i32 0, label %125
    i32 2, label %129
  ]

125:                                              ; preds = %123
  br label %126

126:                                              ; preds = %125
  %127 = load i32, ptr %14, align 4, !tbaa !47
  %128 = add nsw i32 %127, 1
  store i32 %128, ptr %14, align 4, !tbaa !47
  br label %33, !llvm.loop !462

129:                                              ; preds = %123, %33
  %130 = load i32, ptr %13, align 4, !tbaa !47
  store i32 1, ptr %18, align 4
  call void @llvm.lifetime.end.p0(i64 8, ptr %16) #9
  call void @llvm.lifetime.end.p0(i64 8, ptr %15) #9
  call void @llvm.lifetime.end.p0(i64 4, ptr %14) #9
  call void @llvm.lifetime.end.p0(i64 4, ptr %13) #9
  ret i32 %130

131:                                              ; preds = %123
  unreachable
}