; Function Attrs: nofree nounwind memory(read, argmem: readwrite, inaccessiblemem: none) uwtable
define range(i32 -173, 1) i32 @GetCipherSuiteFromName(ptr noundef %0, ptr noundef writeonly captures(address_is_null) %1, ptr noundef writeonly captures(address_is_null) %2, ptr noundef readnone captures(none) %3, ptr noundef readnone captures(none) %4, ptr noundef writeonly captures(address_is_null) %5) local_unnamed_addr #17 {
  %strchr = tail call ptr @strchr(ptr noundef nonnull dereferenceable(1) %0, i32 58)
  %.not = icmp eq ptr %strchr, null
  br i1 %.not, label %11, label %7

7:                                                ; preds = %6
  %8 = ptrtoint ptr %strchr to i64
  %9 = ptrtoint ptr %0 to i64
  %10 = sub i64 %8, %9
  br label %13

11:                                               ; preds = %6
  %12 = tail call i64 @strlen(ptr noundef nonnull dereferenceable(1) %0) #28
  br label %13

13:                                               ; preds = %11, %7
  %.031 = phi i64 [ %10, %7 ], [ %12, %11 ]
  br label %14

14:                                               ; preds = %13, %39
  %indvars.iv = phi i64 [ 0, %13 ], [ %indvars.iv.next, %39 ]
  %15 = getelementptr inbounds nuw [27 x %struct.CipherSuiteInfo], ptr @cipher_names, i64 0, i64 %indvars.iv
  %16 = load ptr, ptr %15, align 8, !tbaa !413
  %17 = tail call i32 @strncmp(ptr noundef nonnull %0, ptr noundef %16, i64 noundef %.031) #28
  %18 = icmp eq i32 %17, 0
  br i1 %18, label %19, label %.thread

19:                                               ; preds = %14
  %20 = getelementptr inbounds nuw i8, ptr %16, i64 %.031
  %21 = load i8, ptr %20, align 1, !tbaa !45
  %22 = icmp eq i8 %21, 0
  br i1 %22, label %.thread41, label %.thread

.thread:                                          ; preds = %14, %19
  %23 = getelementptr inbounds nuw i8, ptr %15, i64 8
  %24 = load ptr, ptr %23, align 8, !tbaa !415
  %25 = tail call i32 @strncmp(ptr noundef nonnull %0, ptr noundef %24, i64 noundef %.031) #28
  %26 = icmp eq i32 %25, 0
  br i1 %26, label %27, label %39

27:                                               ; preds = %.thread
  %28 = getelementptr inbounds nuw i8, ptr %24, i64 %.031
  %29 = load i8, ptr %28, align 1, !tbaa !45
  %.not47 = icmp eq i8 %29, 0
  br i1 %.not47, label %.thread41, label %39

.thread41:                                        ; preds = %19, %27
  %.not38 = icmp eq ptr %1, null
  br i1 %.not38, label %33, label %30

30:                                               ; preds = %.thread41
  %31 = getelementptr inbounds nuw i8, ptr %15, i64 16
  %32 = load i8, ptr %31, align 8, !tbaa !410
  store i8 %32, ptr %1, align 1, !tbaa !45
  br label %33

33:                                               ; preds = %30, %.thread41
  %.not39 = icmp eq ptr %2, null
  br i1 %.not39, label %37, label %34

34:                                               ; preds = %33
  %35 = getelementptr inbounds nuw i8, ptr %15, i64 17
  %36 = load i8, ptr %35, align 1, !tbaa !412
  store i8 %36, ptr %2, align 1, !tbaa !45
  br label %37

37:                                               ; preds = %34, %33
  %.not40 = icmp eq ptr %5, null
  br i1 %.not40, label %.critedge, label %38

38:                                               ; preds = %37
  store i32 0, ptr %5, align 4, !tbaa !49
  br label %.critedge

39:                                               ; preds = %.thread, %27
  %indvars.iv.next = add nuw nsw i64 %indvars.iv, 1
  %exitcond.not = icmp eq i64 %indvars.iv.next, 27
  br i1 %exitcond.not, label %.critedge, label %14, !llvm.loop !417

.critedge:                                        ; preds = %39, %38, %37
  %.1 = phi i32 [ 0, %38 ], [ 0, %37 ], [ -173, %39 ]
  ret i32 %.1
}